target datalayout = "e-m:e-p270:32:32-p271:32:32-p272:64:64-i64:64-i128:128-f80:128-n8:16:32:64-S128"
target triple = "x86_64-pc-linux-gnu"

%struct.evp_method_data_st = type { ptr, i32, i32, ptr, ptr, ptr, i8, ptr, ptr, ptr }
%struct.ossl_algorithm_st = type { ptr, ptr, ptr, ptr }

; Function Attrs: nounwind uwtable
define internal ptr @construct_evp_method(ptr noundef %0, ptr noundef %1, ptr noundef %2) #0 {
  %4 = alloca ptr, align 8
  %5 = alloca ptr, align 8
  %6 = alloca ptr, align 8
  %7 = alloca ptr, align 8
  %8 = alloca ptr, align 8
  %9 = alloca ptr, align 8
  %10 = alloca ptr, align 8
  %11 = alloca ptr, align 8
  %12 = alloca i32, align 4
  %13 = alloca ptr, align 8
  %14 = alloca i32, align 4
  store ptr %0, ptr %5, align 8, !tbaa !45
  store ptr %1, ptr %6, align 8, !tbaa !19
  store ptr %2, ptr %7, align 8, !tbaa !12
  call void @llvm.lifetime.start.p0(i64 8, ptr %8) #6
  %15 = load ptr, ptr %7, align 8, !tbaa !12
  store ptr %15, ptr %8, align 8, !tbaa !17
  call void @llvm.lifetime.start.p0(i64 8, ptr %9) #6
  %16 = load ptr, ptr %6, align 8, !tbaa !19
  %17 = call ptr @ossl_provider_libctx(ptr noundef %16)
  store ptr %17, ptr %9, align 8, !tbaa !3
  call void @llvm.lifetime.start.p0(i64 8, ptr %10) #6
  %18 = load ptr, ptr %9, align 8, !tbaa !3
  %19 = call ptr @ossl_namemap_stored(ptr noundef %18)
  store ptr %19, ptr %10, align 8, !tbaa !22
  call void @llvm.lifetime.start.p0(i64 8, ptr %11) #6
  %20 = load ptr, ptr %5, align 8, !tbaa !45
  %21 = getelementptr inbounds nuw %struct.ossl_algorithm_st, ptr %20, i32 0, i32 0
  %22 = load ptr, ptr %21, align 8, !tbaa !47
  store ptr %22, ptr %11, align 8, !tbaa !10
  call void @llvm.lifetime.start.p0(i64 4, ptr %12) #6
  %23 = load ptr, ptr %10, align 8, !tbaa !22
  %24 = load ptr, ptr %11, align 8, !tbaa !10
  %25 = call i32 @ossl_namemap_add_names(ptr noundef %23, i32 noundef 0, ptr noundef %24, i8 noundef signext 58)
  store i32 %25, ptr %12, align 4, !tbaa !8
  call void @llvm.lifetime.start.p0(i64 8, ptr %13) #6
  %26 = load i32, ptr %12, align 4, !tbaa !8
  %27 = icmp eq i32 %26, 0
  br i1 %27, label %28, label %29

28:                                               ; preds = %3
  store ptr null, ptr %4, align 8
  store i32 1, ptr %14, align 4
  br label %47

29:                                               ; preds = %3
  %30 = load ptr, ptr %8, align 8, !tbaa !17
  %31 = getelementptr inbounds nuw %struct.evp_method_data_st, ptr %30, i32 0, i32 7
  %32 = load ptr, ptr %31, align 8, !tbaa !28
  %33 = load i32, ptr %12, align 4, !tbaa !8
  %34 = load ptr, ptr %5, align 8, !tbaa !45
  %35 = load ptr, ptr %6, align 8, !tbaa !19
  %36 = call ptr %32(i32 noundef %33, ptr noundef %34, ptr noundef %35)
  store ptr %36, ptr %13, align 8, !tbaa !12
  %37 = load ptr, ptr %13, align 8, !tbaa !12
  %38 = icmp eq ptr %37, null
  br i1 %38, label %39, label %45

39:                                               ; preds = %29
  %40 = load ptr, ptr %8, align 8, !tbaa !17
  %41 = getelementptr inbounds nuw %struct.evp_method_data_st, ptr %40, i32 0, i32 6
  %42 = load i8, ptr %41, align 8
  %43 = and i8 %42, -2
  %44 = or i8 %43, 1
  store i8 %44, ptr %41, align 8
  br label %45

45:                                               ; preds = %39, %29
  %46 = load ptr, ptr %13, align 8, !tbaa !12
  store ptr %46, ptr %4, align 8
  store i32 1, ptr %14, align 4
  br label %47

47:                                               ; preds = %45, %28
  call void @llvm.lifetime.end.p0(i64 8, ptr %13) #6
  call void @llvm.lifetime.end.p0(i64 4, ptr %12) #6
  call void @llvm.lifetime.end.p0(i64 8, ptr %11) #6
  call void @llvm.lifetime.end.p0(i64 8, ptr %10) #6
  call void @llvm.lifetime.end.p0(i64 8, ptr %9) #6
  call void @llvm.lifetime.end.p0(i64 8, ptr %8) #6
  %48 = load ptr, ptr %4, align 8
  ret ptr %48
}