; Function Attrs: nounwind uwtable
define internal ptr @construct_evp_method(ptr noundef %0, ptr noundef %1, ptr noundef captures(none) %2) #0 {
  %4 = tail call ptr @ossl_provider_libctx(ptr noundef %1) #5
  %5 = tail call ptr @ossl_namemap_stored(ptr noundef %4) #5
  %6 = load ptr, ptr %0, align 8, !tbaa !30
  %7 = tail call i32 @ossl_namemap_add_names(ptr noundef %5, i32 noundef 0, ptr noundef %6, i8 noundef signext 58) #5
  %8 = icmp eq i32 %7, 0
  br i1 %8, label %18, label %9

9:                                                ; preds = %3
  %10 = getelementptr inbounds nuw i8, ptr %2, i64 48
  %11 = load ptr, ptr %10, align 8, !tbaa !21
  %12 = tail call ptr %11(i32 noundef %7, ptr noundef nonnull %0, ptr noundef %1) #5
  %13 = icmp eq ptr %12, null
  br i1 %13, label %14, label %18

14:                                               ; preds = %9
  %15 = getelementptr inbounds nuw i8, ptr %2, i64 40
  %16 = load i8, ptr %15, align 8
  %17 = or i8 %16, 1
  store i8 %17, ptr %15, align 8
  br label %18

18:                                               ; preds = %9, %14, %3
  %.0 = phi ptr [ null, %3 ], [ null, %14 ], [ %12, %9 ]
  ret ptr %.0
}